target datalayout = "e-m:e-p270:32:32-p271:32:32-p272:64:64-i64:64-i128:128-f80:128-n8:16:32:64-S128"
target triple = "x86_64-pc-linux-gnu"

%struct.Abc_Ntk_t_ = type { i32, i32, ptr, ptr, ptr, ptr, ptr, ptr, ptr, ptr, ptr, ptr, ptr, [11 x i32], i32, i32, i32, i32, ptr, i32, ptr, ptr, i32, i32, i32, double, i32, %struct.Vec_Int_t_, ptr, ptr, ptr, ptr, ptr, float, i32, ptr, ptr, ptr, ptr, ptr, ptr, ptr, ptr, ptr, ptr, ptr, ptr, ptr, ptr, ptr, ptr, ptr, ptr, ptr, ptr, ptr }
%struct.Vec_Int_t_ = type { i32, i32, ptr }
%struct.Vec_Ptr_t_ = type { i32, i32, ptr }

@.str.5 = private unnamed_addr constant [4 x i8] c"dsd\00", align 1
@.str.6 = private unnamed_addr constant [2 x i8] c"F\00", align 1
@stdout = external global ptr, align 8
@.str.7 = private unnamed_addr constant [41 x i8] c"Io_ReadDsd(): Network check has failed.\0A\00", align 1

; Function Attrs: nounwind uwtable
define internal ptr @Abc_NtkCreatePo(ptr noundef %0) #0 {
  %2 = alloca ptr, align 8
  store ptr %0, ptr %2, align 8
  %3 = load ptr, ptr %2, align 8
  %4 = call ptr @Abc_NtkCreateObj(ptr noundef %3, i32 noundef 3)
  ret ptr %4
}

; Function Attrs: nounwind uwtable
define internal ptr @Vec_PtrEntry(ptr noundef %0, i32 noundef %1) #0 {
  %3 = alloca ptr, align 8
  %4 = alloca i32, align 4
  store ptr %0, ptr %3, align 8
  store i32 %1, ptr %4, align 4
  %5 = load ptr, ptr %3, align 8
  %6 = getelementptr inbounds %struct.Vec_Ptr_t_, ptr %5, i32 0, i32 2
  %7 = load ptr, ptr %6, align 8
  %8 = load i32, ptr %4, align 4
  %9 = sext i32 %8 to i64
  %10 = getelementptr inbounds ptr, ptr %7, i64 %9
  %11 = load ptr, ptr %10, align 8
  ret ptr %11
}

; Function Attrs: nounwind uwtable
define internal ptr @Abc_NtkCreatePi(ptr noundef %0) #0 {
  %2 = alloca ptr, align 8
  store ptr %0, ptr %2, align 8
  %3 = load ptr, ptr %2, align 8
  %4 = call ptr @Abc_NtkCreateObj(ptr noundef %3, i32 noundef 2)
  ret ptr %4
}

; Function Attrs: nounwind uwtable
define internal i32 @Abc_MaxInt(i32 noundef %0, i32 noundef %1) #0 {
  %3 = alloca i32, align 4
  %4 = alloca i32, align 4
  store i32 %0, ptr %3, align 4
  store i32 %1, ptr %4, align 4
  %5 = load i32, ptr %3, align 4
  %6 = load i32, ptr %4, align 4
  %7 = icmp sgt i32 %5, %6
  br i1 %7, label %8, label %10

8:                                                ; preds = %2
  %9 = load i32, ptr %3, align 4
  br label %12

10:                                               ; preds = %2
  %11 = load i32, ptr %4, align 4
  br label %12

12:                                               ; preds = %10, %8
  %13 = phi i32 [ %9, %8 ], [ %11, %10 ]
  ret i32 %13
}

; Function Attrs: nounwind uwtable
define ptr @Io_ReadDsd(ptr noundef %0) #0 {
  %2 = alloca ptr, align 8
  %3 = alloca ptr, align 8
  %4 = alloca ptr, align 8
  %5 = alloca ptr, align 8
  %6 = alloca ptr, align 8
  %7 = alloca ptr, align 8
  %8 = alloca ptr, align 8
  %9 = alloca ptr, align 8
  %10 = alloca i32, align 4
  %11 = alloca i32, align 4
  store ptr %0, ptr %3, align 8
  store i32 0, ptr %11, align 4
  %12 = load ptr, ptr %3, align 8
  store ptr %12, ptr %8, align 8
  br label %13

13:                                               ; preds = %35, %1
  %14 = load ptr, ptr %8, align 8
  %15 = load i8, ptr %14, align 1
  %16 = icmp ne i8 %15, 0
  br i1 %16, label %17, label %38

17:                                               ; preds = %13
  %18 = load ptr, ptr %8, align 8
  %19 = load i8, ptr %18, align 1
  %20 = sext i8 %19 to i32
  %21 = icmp sge i32 %20, 97
  br i1 %21, label %22, label %34

22:                                               ; preds = %17
  %23 = load ptr, ptr %8, align 8
  %24 = load i8, ptr %23, align 1
  %25 = sext i8 %24 to i32
  %26 = icmp sle i32 %25, 122
  br i1 %26, label %27, label %34

27:                                               ; preds = %22
  %28 = load i32, ptr %11, align 4
  %29 = load ptr, ptr %8, align 8
  %30 = load i8, ptr %29, align 1
  %31 = sext i8 %30 to i32
  %32 = sub nsw i32 %31, 97
  %33 = call i32 @Abc_MaxInt(i32 noundef %28, i32 noundef %32)
  store i32 %33, ptr %11, align 4
  br label %34

34:                                               ; preds = %27, %22, %17
  br label %35

35:                                               ; preds = %34
  %36 = load ptr, ptr %8, align 8
  %37 = getelementptr inbounds i8, ptr %36, i32 1
  store ptr %37, ptr %8, align 8
  br label %13, !llvm.loop !10

38:                                               ; preds = %13
  %39 = load i32, ptr %11, align 4
  %40 = add nsw i32 %39, 1
  store i32 %40, ptr %11, align 4
  %41 = call ptr @Abc_NtkAlloc(i32 noundef 2, i32 noundef 1, i32 noundef 1)
  store ptr %41, ptr %4, align 8
  %42 = call ptr @Extra_UtilStrsav(ptr noundef @.str.5)
  %43 = load ptr, ptr %4, align 8
  %44 = getelementptr inbounds %struct.Abc_Ntk_t_, ptr %43, i32 0, i32 2
  store ptr %42, ptr %44, align 8
  %45 = load i32, ptr %11, align 4
  %46 = call ptr @Abc_NodeGetFakeNames(i32 noundef %45)
  store ptr %46, ptr %7, align 8
  store i32 0, ptr %10, align 4
  br label %47

47:                                               ; preds = %58, %38
  %48 = load i32, ptr %10, align 4
  %49 = load i32, ptr %11, align 4
  %50 = icmp slt i32 %48, %49
  br i1 %50, label %51, label %61

51:                                               ; preds = %47
  %52 = load ptr, ptr %4, align 8
  %53 = call ptr @Abc_NtkCreatePi(ptr noundef %52)
  %54 = load ptr, ptr %7, align 8
  %55 = load i32, ptr %10, align 4
  %56 = call ptr @Vec_PtrEntry(ptr noundef %54, i32 noundef %55)
  %57 = call ptr @Abc_ObjAssignName(ptr noundef %53, ptr noundef %56, ptr noundef null)
  br label %58

58:                                               ; preds = %51
  %59 = load i32, ptr %10, align 4
  %60 = add nsw i32 %59, 1
  store i32 %60, ptr %10, align 4
  br label %47, !llvm.loop !11

61:                                               ; preds = %47
  %62 = load ptr, ptr %7, align 8
  call void @Abc_NodeFreeNames(ptr noundef %62)
  %63 = load ptr, ptr %3, align 8
  %64 = call i64 @strlen(ptr noundef %63) #5
  %65 = mul i64 3, %64
  %66 = add i64 %65, 10
  %67 = mul i64 1, %66
  %68 = call noalias ptr @malloc(i64 noundef %67) #7
  store ptr %68, ptr %9, align 8
  store ptr %68, ptr %8, align 8
  %69 = load ptr, ptr %8, align 8
  %70 = getelementptr inbounds i8, ptr %69, i32 1
  store ptr %70, ptr %8, align 8
  store i8 40, ptr %69, align 1
  br label %71

71:                                               ; preds = %115, %61
  %72 = load ptr, ptr %3, align 8
  %73 = load i8, ptr %72, align 1
  %74 = icmp ne i8 %73, 0
  br i1 %74, label %75, label %118

75:                                               ; preds = %71
  %76 = load ptr, ptr %3, align 8
  %77 = load i8, ptr %76, align 1
  %78 = sext i8 %77 to i32
  %79 = icmp eq i32 %78, 40
  br i1 %79, label %80, label %85

80:                                               ; preds = %75
  %81 = load ptr, ptr %8, align 8
  %82 = getelementptr inbounds i8, ptr %81, i32 1
  store ptr %82, ptr %8, align 8
  store i8 40, ptr %81, align 1
  %83 = load ptr, ptr %8, align 8
  %84 = getelementptr inbounds i8, ptr %83, i32 1
  store ptr %84, ptr %8, align 8
  store i8 40, ptr %83, align 1
  br label %114

85:                                               ; preds = %75
  %86 = load ptr, ptr %3, align 8
  %87 = load i8, ptr %86, align 1
  %88 = sext i8 %87 to i32
  %89 = icmp eq i32 %88, 41
  br i1 %89, label %90, label %95

90:                                               ; preds = %85
  %91 = load ptr, ptr %8, align 8
  %92 = getelementptr inbounds i8, ptr %91, i32 1
  store ptr %92, ptr %8, align 8
  store i8 41, ptr %91, align 1
  %93 = load ptr, ptr %8, align 8
  %94 = getelementptr inbounds i8, ptr %93, i32 1
  store ptr %94, ptr %8, align 8
  store i8 41, ptr %93, align 1
  br label %113

95:                                               ; preds = %85
  %96 = load ptr, ptr %3, align 8
  %97 = load i8, ptr %96, align 1
  %98 = sext i8 %97 to i32
  %99 = icmp eq i32 %98, 44
  br i1 %99, label %100, label %107

100:                                              ; preds = %95
  %101 = load ptr, ptr %8, align 8
  %102 = getelementptr inbounds i8, ptr %101, i32 1
  store ptr %102, ptr %8, align 8
  store i8 41, ptr %101, align 1
  %103 = load ptr, ptr %8, align 8
  %104 = getelementptr inbounds i8, ptr %103, i32 1
  store ptr %104, ptr %8, align 8
  store i8 44, ptr %103, align 1
  %105 = load ptr, ptr %8, align 8
  %106 = getelementptr inbounds i8, ptr %105, i32 1
  store ptr %106, ptr %8, align 8
  store i8 40, ptr %105, align 1
  br label %112

107:                                              ; preds = %95
  %108 = load ptr, ptr %3, align 8
  %109 = load i8, ptr %108, align 1
  %110 = load ptr, ptr %8, align 8
  %111 = getelementptr inbounds i8, ptr %110, i32 1
  store ptr %111, ptr %8, align 8
  store i8 %109, ptr %110, align 1
  br label %112

112:                                              ; preds = %107, %100
  br label %113

113:                                              ; preds = %112, %90
  br label %114

114:                                              ; preds = %113, %80
  br label %115

115:                                              ; preds = %114
  %116 = load ptr, ptr %3, align 8
  %117 = getelementptr inbounds i8, ptr %116, i32 1
  store ptr %117, ptr %3, align 8
  br label %71, !llvm.loop !12

118:                                              ; preds = %71
  %119 = load ptr, ptr %8, align 8
  %120 = getelementptr inbounds i8, ptr %119, i32 1
  store ptr %120, ptr %8, align 8
  store i8 41, ptr %119, align 1
  %121 = load ptr, ptr %8, align 8
  store i8 0, ptr %121, align 1
  %122 = load ptr, ptr %4, align 8
  %123 = load ptr, ptr %9, align 8
  %124 = call ptr @Io_ReadDsd_rec(ptr noundef %122, ptr noundef %123, ptr noundef null)
  store ptr %124, ptr %5, align 8
  %125 = load ptr, ptr %9, align 8
  %126 = icmp ne ptr %125, null
  br i1 %126, label %127, label %129

127:                                              ; preds = %118
  %128 = load ptr, ptr %9, align 8
  call void @free(ptr noundef %128) #6
  store ptr null, ptr %9, align 8
  br label %130

129:                                              ; preds = %118
  br label %130

130:                                              ; preds = %129, %127
  %131 = load ptr, ptr %5, align 8
  %132 = icmp eq ptr %131, null
  br i1 %132, label %133, label %134

133:                                              ; preds = %130
  store ptr null, ptr %2, align 8
  br label %150

134:                                              ; preds = %130
  %135 = load ptr, ptr %4, align 8
  %136 = call ptr @Abc_NtkCreatePo(ptr noundef %135)
  store ptr %136, ptr %6, align 8
  %137 = load ptr, ptr %6, align 8
  %138 = call ptr @Abc_ObjAssignName(ptr noundef %137, ptr noundef @.str.6, ptr noundef null)
  %139 = load ptr, ptr %6, align 8
  %140 = load ptr, ptr %5, align 8
  call void @Abc_ObjAddFanin(ptr noundef %139, ptr noundef %140)
  %141 = load ptr, ptr %4, align 8
  %142 = call i32 @Abc_NtkCheck(ptr noundef %141)
  %143 = icmp ne i32 %142, 0
  br i1 %143, label %148, label %144

144:                                              ; preds = %134
  %145 = load ptr, ptr @stdout, align 8
  %146 = call i32 (ptr, ptr, ...) @fprintf(ptr noundef %145, ptr noundef @.str.7) #6
  %147 = load ptr, ptr %4, align 8
  call void @Abc_NtkDelete(ptr noundef %147)
  store ptr null, ptr %2, align 8
  br label %150

148:                                              ; preds = %134
  %149 = load ptr, ptr %4, align 8
  store ptr %149, ptr %2, align 8
  br label %150

150:                                              ; preds = %148, %144, %133
  %151 = load ptr, ptr %2, align 8
  ret ptr %151
}