; Function Attrs: nounwind uwtable
define ptr @Io_ReadDsd(ptr noundef readonly captures(none) %0) local_unnamed_addr #2 {
  %2 = load i8, ptr %0, align 1
  %.not60 = icmp eq i8 %2, 0
  br i1 %.not60, label %.lr.ph66, label %.lr.ph

.lr.ph:                                           ; preds = %1, %.lr.ph
  %3 = phi i8 [ %8, %.lr.ph ], [ %2, %1 ]
  %.062 = phi i32 [ %.1, %.lr.ph ], [ 0, %1 ]
  %.04861 = phi ptr [ %7, %.lr.ph ], [ %0, %1 ]
  %4 = add i8 %3, -97
  %or.cond = icmp ult i8 %4, 26
  %5 = zext nneg i8 %4 to i32
  %6 = tail call range(i32 0, 26) i32 @llvm.umax.i32(i32 range(i32 0, 26) %.062, i32 range(i32 0, 26) %5)
  %.1 = select i1 %or.cond, i32 %6, i32 %.062
  %7 = getelementptr inbounds nuw i8, ptr %.04861, i64 1
  %8 = load i8, ptr %7, align 1
  %.not = icmp eq i8 %8, 0
  br i1 %.not, label %._crit_edge.loopexit, label %.lr.ph, !llvm.loop !10

._crit_edge.loopexit:                             ; preds = %.lr.ph
  %9 = add nuw nsw i32 %.1, 1
  br label %.lr.ph66

.lr.ph66:                                         ; preds = %1, %._crit_edge.loopexit
  %.0.lcssa = phi i32 [ 1, %1 ], [ %9, %._crit_edge.loopexit ]
  %10 = tail call ptr @Abc_NtkAlloc(i32 noundef 2, i32 noundef 1, i32 noundef 1) #9
  %11 = tail call ptr @Extra_UtilStrsav(ptr noundef nonnull @.str.5) #9
  %12 = getelementptr inbounds nuw i8, ptr %10, i64 8
  store ptr %11, ptr %12, align 8
  %13 = tail call ptr @Abc_NodeGetFakeNames(i32 noundef %.0.lcssa) #9
  %14 = getelementptr i8, ptr %13, i64 8
  %wide.trip.count = zext nneg i32 %.0.lcssa to i64
  br label %15

15:                                               ; preds = %.lr.ph66, %15
  %indvars.iv = phi i64 [ 0, %.lr.ph66 ], [ %indvars.iv.next, %15 ]
  %16 = tail call ptr @Abc_NtkCreateObj(ptr noundef %10, i32 noundef 2) #9
  %.val = load ptr, ptr %14, align 8
  %17 = getelementptr inbounds nuw ptr, ptr %.val, i64 %indvars.iv
  %18 = load ptr, ptr %17, align 8
  %19 = tail call ptr @Abc_ObjAssignName(ptr noundef %16, ptr noundef %18, ptr noundef null) #9
  %indvars.iv.next = add nuw nsw i64 %indvars.iv, 1
  %exitcond.not = icmp eq i64 %indvars.iv.next, %wide.trip.count
  br i1 %exitcond.not, label %._crit_edge67, label %15, !llvm.loop !11

._crit_edge67:                                    ; preds = %15
  tail call void @Abc_NodeFreeNames(ptr noundef nonnull %13) #9
  %20 = tail call i64 @strlen(ptr noundef nonnull dereferenceable(1) %0) #10
  %21 = mul i64 %20, 3
  %22 = add i64 %21, 10
  %23 = tail call noalias ptr @malloc(i64 noundef %22) #11
  %24 = getelementptr inbounds nuw i8, ptr %23, i64 1
  store i8 40, ptr %23, align 1
  br label %25

25:                                               ; preds = %36, %._crit_edge67
  %.051 = phi ptr [ %0, %._crit_edge67 ], [ %37, %36 ]
  %.149 = phi ptr [ %24, %._crit_edge67 ], [ %.2, %36 ]
  %26 = load i8, ptr %.051, align 1
  %27 = getelementptr inbounds nuw i8, ptr %.149, i64 1
  switch i8 %26, label %35 [
    i8 0, label %38
    i8 40, label %28
    i8 41, label %30
    i8 44, label %32
  ]

28:                                               ; preds = %25
  store i8 40, ptr %.149, align 1
  %29 = getelementptr inbounds nuw i8, ptr %.149, i64 2
  store i8 40, ptr %27, align 1
  br label %36

30:                                               ; preds = %25
  store i8 41, ptr %.149, align 1
  %31 = getelementptr inbounds nuw i8, ptr %.149, i64 2
  store i8 41, ptr %27, align 1
  br label %36

32:                                               ; preds = %25
  store i8 41, ptr %.149, align 1
  %33 = getelementptr inbounds nuw i8, ptr %.149, i64 2
  store i8 44, ptr %27, align 1
  %34 = getelementptr inbounds nuw i8, ptr %.149, i64 3
  store i8 40, ptr %33, align 1
  br label %36

35:                                               ; preds = %25
  store i8 %26, ptr %.149, align 1
  br label %36

36:                                               ; preds = %28, %32, %35, %30
  %.2 = phi ptr [ %29, %28 ], [ %31, %30 ], [ %34, %32 ], [ %27, %35 ]
  %37 = getelementptr inbounds nuw i8, ptr %.051, i64 1
  br label %25, !llvm.loop !12

38:                                               ; preds = %25
  store i8 41, ptr %.149, align 1
  store i8 0, ptr %27, align 1
  %39 = tail call ptr @Io_ReadDsd_rec(ptr noundef %10, ptr noundef nonnull %23, ptr noundef null)
  tail call void @free(ptr noundef %23) #9
  %40 = icmp eq ptr %39, null
  br i1 %40, label %48, label %41

41:                                               ; preds = %38
  %42 = tail call ptr @Abc_NtkCreateObj(ptr noundef %10, i32 noundef 3) #9
  %43 = tail call ptr @Abc_ObjAssignName(ptr noundef %42, ptr noundef nonnull @.str.6, ptr noundef null) #9
  tail call void @Abc_ObjAddFanin(ptr noundef %42, ptr noundef nonnull %39) #9
  %44 = tail call i32 @Abc_NtkCheck(ptr noundef %10) #9
  %.not59 = icmp eq i32 %44, 0
  br i1 %.not59, label %45, label %48

45:                                               ; preds = %41
  %46 = load ptr, ptr @stdout, align 8
  %47 = tail call i64 @fwrite(ptr nonnull @.str.7, i64 40, i64 1, ptr %46)
  tail call void @Abc_NtkDelete(ptr noundef %10) #9
  br label %48

48:                                               ; preds = %41, %38, %45
  %.050 = phi ptr [ null, %45 ], [ null, %38 ], [ %10, %41 ]
  ret ptr %.050
}